target datalayout = "e-m:e-p270:32:32-p271:32:32-p272:64:64-i64:64-i128:128-f80:128-n8:16:32:64-S128"
target triple = "x86_64-pc-linux-gnu"

%"struct.absl::cord_internal::CordRep" = type { i64, %"class.absl::cord_internal::RefcountAndFlags", i8, [3 x i8] }
%"class.absl::cord_internal::RefcountAndFlags" = type { %"struct.std::atomic" }
%"struct.std::atomic" = type { %"struct.std::__atomic_base" }
%"struct.std::__atomic_base" = type { i32 }
%"struct.absl::cord_internal::CordRepCrc" = type { %"struct.absl::cord_internal::CordRep", ptr, %"class.absl::crc_internal::CrcCordState" }
%"class.absl::crc_internal::CrcCordState" = type { ptr }

; Function Attrs: mustprogress nounwind uwtable
define linkonce_odr dso_local void @_ZNSt13__atomic_baseIiEC2Ei(ptr noundef nonnull align 4 dereferenceable(4) %0, i32 noundef %1) unnamed_addr #1 comdat align 2 {
  %3 = alloca ptr, align 8
  %4 = alloca i32, align 4
  store ptr %0, ptr %3, align 8, !tbaa !27
  store i32 %1, ptr %4, align 4, !tbaa !31
  %5 = load ptr, ptr %3, align 8
  %6 = getelementptr inbounds nuw %"struct.std::__atomic_base", ptr %5, i32 0, i32 0
  %7 = load i32, ptr %4, align 4, !tbaa !31
  store i32 %7, ptr %6, align 4, !tbaa !36
  ret void
}

; Function Attrs: mustprogress nounwind uwtable
define linkonce_odr dso_local void @_ZNSt6atomicIiEC2Ei(ptr noundef nonnull align 4 dereferenceable(4) %0, i32 noundef %1) unnamed_addr #1 comdat align 2 {
  %3 = alloca ptr, align 8
  %4 = alloca i32, align 4
  store ptr %0, ptr %3, align 8, !tbaa !34
  store i32 %1, ptr %4, align 4, !tbaa !31
  %5 = load ptr, ptr %3, align 8
  %6 = load i32, ptr %4, align 4, !tbaa !31
  call void @_ZNSt13__atomic_baseIiEC2Ei(ptr noundef nonnull align 4 dereferenceable(4) %5, i32 noundef %6) #13
  ret void
}

; Function Attrs: mustprogress nounwind uwtable
define linkonce_odr dso_local void @_ZN4absl13cord_internal16RefcountAndFlagsC2Ev(ptr noundef nonnull align 4 dereferenceable(4) %0) unnamed_addr #1 comdat align 2 {
  %2 = alloca ptr, align 8
  store ptr %0, ptr %2, align 8, !tbaa !25
  %3 = load ptr, ptr %2, align 8
  %4 = getelementptr inbounds nuw %"class.absl::cord_internal::RefcountAndFlags", ptr %3, i32 0, i32 0
  call void @_ZNSt6atomicIiEC2Ei(ptr noundef nonnull align 4 dereferenceable(4) %4, i32 noundef 2) #13
  ret void
}

; Function Attrs: alwaysinline mustprogress nounwind uwtable
define linkonce_odr dso_local noundef i32 @_ZNSt13__atomic_baseIiE9fetch_subEiSt12memory_order(ptr noundef nonnull align 4 dereferenceable(4) %0, i32 noundef %1, i32 noundef %2) #8 comdat align 2 {
  %4 = alloca ptr, align 8
  %5 = alloca i32, align 4
  %6 = alloca i32, align 4
  %7 = alloca i32, align 4
  %8 = alloca i32, align 4
  store ptr %0, ptr %4, align 8, !tbaa !27
  store i32 %1, ptr %5, align 4, !tbaa !31
  store i32 %2, ptr %6, align 4, !tbaa !29
  %9 = load ptr, ptr %4, align 8
  %10 = getelementptr inbounds nuw %"struct.std::__atomic_base", ptr %9, i32 0, i32 0
  %11 = load i32, ptr %6, align 4, !tbaa !29
  %12 = load i32, ptr %5, align 4, !tbaa !31
  store i32 %12, ptr %7, align 4, !tbaa !31
  switch i32 %11, label %13 [
    i32 1, label %16
    i32 2, label %16
    i32 3, label %19
    i32 4, label %22
    i32 5, label %25
  ]

13:                                               ; preds = %3
  %14 = load i32, ptr %7, align 4
  %15 = atomicrmw sub ptr %10, i32 %14 monotonic, align 4
  store i32 %15, ptr %8, align 4
  br label %28

16:                                               ; preds = %3, %3
  %17 = load i32, ptr %7, align 4
  %18 = atomicrmw sub ptr %10, i32 %17 acquire, align 4
  store i32 %18, ptr %8, align 4
  br label %28

19:                                               ; preds = %3
  %20 = load i32, ptr %7, align 4
  %21 = atomicrmw sub ptr %10, i32 %20 release, align 4
  store i32 %21, ptr %8, align 4
  br label %28

22:                                               ; preds = %3
  %23 = load i32, ptr %7, align 4
  %24 = atomicrmw sub ptr %10, i32 %23 acq_rel, align 4
  store i32 %24, ptr %8, align 4
  br label %28

25:                                               ; preds = %3
  %26 = load i32, ptr %7, align 4
  %27 = atomicrmw sub ptr %10, i32 %26 seq_cst, align 4
  store i32 %27, ptr %8, align 4
  br label %28

28:                                               ; preds = %25, %22, %19, %16, %13
  %29 = load i32, ptr %8, align 4, !tbaa !31
  ret i32 %29
}

; Function Attrs: alwaysinline mustprogress nounwind uwtable
define linkonce_odr dso_local noundef i32 @_ZNSt13__atomic_baseIiE9fetch_addEiSt12memory_order(ptr noundef nonnull align 4 dereferenceable(4) %0, i32 noundef %1, i32 noundef %2) #8 comdat align 2 {
  %4 = alloca ptr, align 8
  %5 = alloca i32, align 4
  %6 = alloca i32, align 4
  %7 = alloca i32, align 4
  %8 = alloca i32, align 4
  store ptr %0, ptr %4, align 8, !tbaa !27
  store i32 %1, ptr %5, align 4, !tbaa !31
  store i32 %2, ptr %6, align 4, !tbaa !29
  %9 = load ptr, ptr %4, align 8
  %10 = getelementptr inbounds nuw %"struct.std::__atomic_base", ptr %9, i32 0, i32 0
  %11 = load i32, ptr %6, align 4, !tbaa !29
  %12 = load i32, ptr %5, align 4, !tbaa !31
  store i32 %12, ptr %7, align 4, !tbaa !31
  switch i32 %11, label %13 [
    i32 1, label %16
    i32 2, label %16
    i32 3, label %19
    i32 4, label %22
    i32 5, label %25
  ]

13:                                               ; preds = %3
  %14 = load i32, ptr %7, align 4
  %15 = atomicrmw add ptr %10, i32 %14 monotonic, align 4
  store i32 %15, ptr %8, align 4
  br label %28

16:                                               ; preds = %3, %3
  %17 = load i32, ptr %7, align 4
  %18 = atomicrmw add ptr %10, i32 %17 acquire, align 4
  store i32 %18, ptr %8, align 4
  br label %28

19:                                               ; preds = %3
  %20 = load i32, ptr %7, align 4
  %21 = atomicrmw add ptr %10, i32 %20 release, align 4
  store i32 %21, ptr %8, align 4
  br label %28

22:                                               ; preds = %3
  %23 = load i32, ptr %7, align 4
  %24 = atomicrmw add ptr %10, i32 %23 acq_rel, align 4
  store i32 %24, ptr %8, align 4
  br label %28

25:                                               ; preds = %3
  %26 = load i32, ptr %7, align 4
  %27 = atomicrmw add ptr %10, i32 %26 seq_cst, align 4
  store i32 %27, ptr %8, align 4
  br label %28

28:                                               ; preds = %25, %22, %19, %16, %13
  %29 = load i32, ptr %8, align 4, !tbaa !31
  ret i32 %29
}

; Function Attrs: noinline noreturn nounwind uwtable
define linkonce_odr hidden void @__clang_call_terminate(ptr noundef %0) #9 comdat {
  %2 = call ptr @__cxa_begin_catch(ptr %0) #13
  call void @_ZSt9terminatev() #16
  unreachable
}

; Function Attrs: mustprogress nounwind uwtable
define linkonce_odr dso_local noundef i32 @_ZStanSt12memory_orderSt23__memory_order_modifier(i32 noundef %0, i32 noundef %1) #1 comdat {
  %3 = alloca i32, align 4
  %4 = alloca i32, align 4
  store i32 %0, ptr %3, align 4, !tbaa !29
  store i32 %1, ptr %4, align 4, !tbaa !32
  %5 = load i32, ptr %3, align 4, !tbaa !29
  %6 = load i32, ptr %4, align 4, !tbaa !32
  %7 = and i32 %5, %6
  ret i32 %7
}

; Function Attrs: mustprogress uwtable
define linkonce_odr dso_local void @_ZN4absl13cord_internal7CordRepC2Ev(ptr noundef nonnull align 8 dereferenceable(16) %0) unnamed_addr #0 comdat align 2 {
  %2 = alloca ptr, align 8
  store ptr %0, ptr %2, align 8, !tbaa !4
  %3 = load ptr, ptr %2, align 8
  %4 = getelementptr inbounds nuw %"struct.absl::cord_internal::CordRep", ptr %3, i32 0, i32 1
  call void @_ZN4absl13cord_internal16RefcountAndFlagsC2Ev(ptr noundef nonnull align 4 dereferenceable(4) %4)
  ret void
}

; Function Attrs: inlinehint mustprogress nounwind uwtable
define linkonce_odr dso_local noundef zeroext i1 @_ZN4absl13cord_internal16RefcountAndFlags27DecrementExpectHighRefcountEv(ptr noundef nonnull align 4 dereferenceable(4) %0) #2 comdat align 2 {
  %2 = alloca ptr, align 8
  %3 = alloca i32, align 4
  store ptr %0, ptr %2, align 8, !tbaa !25
  %4 = load ptr, ptr %2, align 8
  call void @llvm.lifetime.start.p0(i64 4, ptr %3) #13
  %5 = getelementptr inbounds nuw %"class.absl::cord_internal::RefcountAndFlags", ptr %4, i32 0, i32 0
  %6 = call noundef i32 @_ZNSt13__atomic_baseIiE9fetch_subEiSt12memory_order(ptr noundef nonnull align 4 dereferenceable(4) %5, i32 noundef 2, i32 noundef 4) #13
  store i32 %6, ptr %3, align 4, !tbaa !31
  %7 = load i32, ptr %3, align 4, !tbaa !31
  %8 = icmp ne i32 %7, 2
  call void @llvm.lifetime.end.p0(i64 4, ptr %3) #13
  ret i1 %8
}

; Function Attrs: inlinehint mustprogress nounwind uwtable
define linkonce_odr dso_local void @_ZN4absl13cord_internal16RefcountAndFlags9IncrementEv(ptr noundef nonnull align 4 dereferenceable(4) %0) #2 comdat align 2 {
  %2 = alloca ptr, align 8
  store ptr %0, ptr %2, align 8, !tbaa !25
  %3 = load ptr, ptr %2, align 8
  %4 = getelementptr inbounds nuw %"class.absl::cord_internal::RefcountAndFlags", ptr %3, i32 0, i32 0
  %5 = call noundef i32 @_ZNSt13__atomic_baseIiE9fetch_addEiSt12memory_order(ptr noundef nonnull align 4 dereferenceable(4) %4, i32 noundef 2, i32 noundef 0) #13
  ret void
}

; Function Attrs: alwaysinline mustprogress nounwind uwtable
define linkonce_odr dso_local noundef i32 @_ZNKSt13__atomic_baseIiE4loadESt12memory_order(ptr noundef nonnull align 4 dereferenceable(4) %0, i32 noundef %1) #8 comdat align 2 personality ptr @__gxx_personality_v0 {
  %3 = alloca ptr, align 8
  %4 = alloca i32, align 4
  %5 = alloca i32, align 4
  %6 = alloca i32, align 4
  store ptr %0, ptr %3, align 8, !tbaa !27
  store i32 %1, ptr %4, align 4, !tbaa !29
  %7 = load ptr, ptr %3, align 8
  call void @llvm.lifetime.start.p0(i64 4, ptr %5) #13
  %8 = load i32, ptr %4, align 4, !tbaa !29
  %9 = invoke noundef i32 @_ZStanSt12memory_orderSt23__memory_order_modifier(i32 noundef %8, i32 noundef 65535)
          to label %10 unwind label %27

10:                                               ; preds = %2
  store i32 %9, ptr %5, align 4, !tbaa !29
  br label %11

11:                                               ; preds = %10
  br label %12

12:                                               ; preds = %11
  br label %13

13:                                               ; preds = %12
  br label %14

14:                                               ; preds = %13
  br label %15

15:                                               ; preds = %14
  br label %16

16:                                               ; preds = %15
  %17 = getelementptr inbounds nuw %"struct.std::__atomic_base", ptr %7, i32 0, i32 0
  %18 = load i32, ptr %4, align 4, !tbaa !29
  switch i32 %18, label %19 [
    i32 1, label %21
    i32 2, label %21
    i32 5, label %23
  ]

19:                                               ; preds = %16
  %20 = load atomic i32, ptr %17 monotonic, align 4
  store i32 %20, ptr %6, align 4
  br label %25

21:                                               ; preds = %16, %16
  %22 = load atomic i32, ptr %17 acquire, align 4
  store i32 %22, ptr %6, align 4
  br label %25

23:                                               ; preds = %16
  %24 = load atomic i32, ptr %17 seq_cst, align 4
  store i32 %24, ptr %6, align 4
  br label %25

25:                                               ; preds = %23, %21, %19
  %26 = load i32, ptr %6, align 4, !tbaa !31
  call void @llvm.lifetime.end.p0(i64 4, ptr %5) #13
  ret i32 %26

27:                                               ; preds = %2
  %28 = landingpad { ptr, i32 }
          catch ptr null
  %29 = extractvalue { ptr, i32 } %28, 0
  call void @__clang_call_terminate(ptr %29) #16
  unreachable
}

; Function Attrs: inlinehint mustprogress uwtable
define linkonce_odr dso_local void @_ZN4absl13cord_internal10CordRepCrcC2Ev(ptr noundef nonnull align 8 dereferenceable(32) %0) unnamed_addr #5 comdat align 2 {
  %2 = alloca ptr, align 8
  store ptr %0, ptr %2, align 8, !tbaa !21
  %3 = load ptr, ptr %2, align 8
  call void @_ZN4absl13cord_internal7CordRepC2Ev(ptr noundef nonnull align 8 dereferenceable(16) %3)
  %4 = getelementptr inbounds nuw %"struct.absl::cord_internal::CordRepCrc", ptr %3, i32 0, i32 2
  call void @_ZN4absl12crc_internal12CrcCordStateC1Ev(ptr noundef nonnull align 8 dereferenceable(8) %4)
  ret void
}

; Function Attrs: inlinehint mustprogress uwtable
define linkonce_odr dso_local void @_ZN4absl13cord_internal7CordRep5UnrefEPS1_(ptr noundef %0) #5 comdat align 2 {
  %2 = alloca ptr, align 8
  store ptr %0, ptr %2, align 8, !tbaa !4
  %3 = load ptr, ptr %2, align 8, !tbaa !4
  %4 = getelementptr inbounds nuw %"struct.absl::cord_internal::CordRep", ptr %3, i32 0, i32 1
  %5 = call noundef zeroext i1 @_ZN4absl13cord_internal16RefcountAndFlags27DecrementExpectHighRefcountEv(ptr noundef nonnull align 4 dereferenceable(4) %4)
  %6 = xor i1 %5, true
  %7 = zext i1 %6 to i64
  %8 = call i64 @llvm.expect.i64(i64 %7, i64 0)
  %9 = icmp ne i64 %8, 0
  br i1 %9, label %10, label %12

10:                                               ; preds = %1
  %11 = load ptr, ptr %2, align 8, !tbaa !4
  call void @_ZN4absl13cord_internal7CordRep7DestroyEPS1_(ptr noundef %11)
  br label %12

12:                                               ; preds = %10, %1
  ret void
}

; Function Attrs: inlinehint mustprogress uwtable
define linkonce_odr dso_local noundef ptr @_ZN4absl13cord_internal7CordRep3RefEPS1_(ptr noundef %0) #5 comdat align 2 {
  %2 = alloca ptr, align 8
  store ptr %0, ptr %2, align 8, !tbaa !4
  %3 = load ptr, ptr %2, align 8, !tbaa !4
  %4 = icmp ne ptr %3, null
  call void @llvm.assume(i1 %4)
  %5 = load ptr, ptr %2, align 8, !tbaa !4
  %6 = getelementptr inbounds nuw %"struct.absl::cord_internal::CordRep", ptr %5, i32 0, i32 1
  call void @_ZN4absl13cord_internal16RefcountAndFlags9IncrementEv(ptr noundef nonnull align 4 dereferenceable(4) %6)
  %7 = load ptr, ptr %2, align 8, !tbaa !4
  ret ptr %7
}

; Function Attrs: inlinehint mustprogress nounwind uwtable
define linkonce_odr dso_local noundef ptr @_ZN4absl13cord_internal7CordRep3crcEv(ptr noundef nonnull align 8 dereferenceable(16) %0) #2 comdat align 2 {
  %2 = alloca ptr, align 8
  store ptr %0, ptr %2, align 8, !tbaa !4
  %3 = load ptr, ptr %2, align 8
  ret ptr %3
}

; Function Attrs: inlinehint mustprogress nounwind uwtable
define linkonce_odr dso_local noundef zeroext i1 @_ZN4absl13cord_internal16RefcountAndFlags5IsOneEv(ptr noundef nonnull align 4 dereferenceable(4) %0) #2 comdat align 2 {
  %2 = alloca ptr, align 8
  store ptr %0, ptr %2, align 8, !tbaa !25
  %3 = load ptr, ptr %2, align 8
  %4 = getelementptr inbounds nuw %"class.absl::cord_internal::RefcountAndFlags", ptr %3, i32 0, i32 0
  %5 = call noundef i32 @_ZNKSt13__atomic_baseIiE4loadESt12memory_order(ptr noundef nonnull align 4 dereferenceable(4) %4, i32 noundef 2) #13
  %6 = icmp eq i32 %5, 2
  ret i1 %6
}

; Function Attrs: mustprogress nounwind uwtable
define linkonce_odr dso_local noundef zeroext i1 @_ZNK4absl13cord_internal7CordRep5IsCrcEv(ptr noundef nonnull align 8 dereferenceable(16) %0) #1 comdat align 2 {
  %2 = alloca ptr, align 8
  store ptr %0, ptr %2, align 8, !tbaa !4
  %3 = load ptr, ptr %2, align 8
  %4 = getelementptr inbounds nuw %"struct.absl::cord_internal::CordRep", ptr %3, i32 0, i32 2
  %5 = load i8, ptr %4, align 4, !tbaa !24
  %6 = zext i8 %5 to i32
  %7 = icmp eq i32 %6, 2
  ret i1 %7
}

; Function Attrs: mustprogress uwtable
define dso_local noundef ptr @_ZN4absl13cord_internal10CordRepCrc3NewEPNS0_7CordRepENS_12crc_internal12CrcCordStateE(ptr noundef %0, ptr noundef %1) #0 align 2 personality ptr @__gxx_personality_v0 {
  %3 = alloca ptr, align 8
  %4 = alloca ptr, align 8
  %5 = alloca ptr, align 8
  %6 = alloca ptr, align 8
  %7 = alloca ptr, align 8
  %8 = alloca ptr, align 8
  %9 = alloca i32, align 4
  store ptr %0, ptr %4, align 8, !tbaa !4
  store ptr %1, ptr %5, align 8, !tbaa !9
  %10 = load ptr, ptr %4, align 8, !tbaa !4
  %11 = icmp ne ptr %10, null
  br i1 %11, label %12, label %35

12:                                               ; preds = %2
  %13 = load ptr, ptr %4, align 8, !tbaa !4
  %14 = call noundef zeroext i1 @_ZNK4absl13cord_internal7CordRep5IsCrcEv(ptr noundef nonnull align 8 dereferenceable(16) %13)
  br i1 %14, label %15, label %35

15:                                               ; preds = %12
  %16 = load ptr, ptr %4, align 8, !tbaa !4
  %17 = getelementptr inbounds nuw %"struct.absl::cord_internal::CordRep", ptr %16, i32 0, i32 1
  %18 = call noundef zeroext i1 @_ZN4absl13cord_internal16RefcountAndFlags5IsOneEv(ptr noundef nonnull align 4 dereferenceable(4) %17)
  br i1 %18, label %19, label %26

19:                                               ; preds = %15
  %20 = load ptr, ptr %4, align 8, !tbaa !4
  %21 = call noundef ptr @_ZN4absl13cord_internal7CordRep3crcEv(ptr noundef nonnull align 8 dereferenceable(16) %20)
  %22 = getelementptr inbounds nuw %"struct.absl::cord_internal::CordRepCrc", ptr %21, i32 0, i32 2
  %23 = call noundef nonnull align 8 dereferenceable(8) ptr @_ZN4absl12crc_internal12CrcCordStateaSEOS1_(ptr noundef nonnull align 8 dereferenceable(8) %22, ptr noundef nonnull align 8 dereferenceable(8) %1)
  %24 = load ptr, ptr %4, align 8, !tbaa !4
  %25 = call noundef ptr @_ZN4absl13cord_internal7CordRep3crcEv(ptr noundef nonnull align 8 dereferenceable(16) %24)
  store ptr %25, ptr %3, align 8
  br label %62

26:                                               ; preds = %15
  call void @llvm.lifetime.start.p0(i64 8, ptr %6) #13
  %27 = load ptr, ptr %4, align 8, !tbaa !4
  store ptr %27, ptr %6, align 8, !tbaa !4
  %28 = load ptr, ptr %6, align 8, !tbaa !4
  %29 = call noundef ptr @_ZN4absl13cord_internal7CordRep3crcEv(ptr noundef nonnull align 8 dereferenceable(16) %28)
  %30 = getelementptr inbounds nuw %"struct.absl::cord_internal::CordRepCrc", ptr %29, i32 0, i32 1
  %31 = load ptr, ptr %30, align 8, !tbaa !11
  store ptr %31, ptr %4, align 8, !tbaa !4
  %32 = load ptr, ptr %4, align 8, !tbaa !4
  %33 = call noundef ptr @_ZN4absl13cord_internal7CordRep3RefEPS1_(ptr noundef %32)
  %34 = load ptr, ptr %6, align 8, !tbaa !4
  call void @_ZN4absl13cord_internal7CordRep5UnrefEPS1_(ptr noundef %34)
  call void @llvm.lifetime.end.p0(i64 8, ptr %6) #13
  br label %35

35:                                               ; preds = %26, %12, %2
  call void @llvm.lifetime.start.p0(i64 8, ptr %7) #13
  %36 = call noalias noundef nonnull ptr @_Znwm(i64 noundef 32) #14
  invoke void @_ZN4absl13cord_internal10CordRepCrcC2Ev(ptr noundef nonnull align 8 dereferenceable(32) %36)
          to label %37 unwind label %58

37:                                               ; preds = %35
  store ptr %36, ptr %7, align 8, !tbaa !21
  %38 = load ptr, ptr %4, align 8, !tbaa !4
  %39 = icmp ne ptr %38, null
  br i1 %39, label %40, label %44

40:                                               ; preds = %37
  %41 = load ptr, ptr %4, align 8, !tbaa !4
  %42 = getelementptr inbounds nuw %"struct.absl::cord_internal::CordRep", ptr %41, i32 0, i32 0
  %43 = load i64, ptr %42, align 8, !tbaa !23
  br label %45

44:                                               ; preds = %37
  br label %45

45:                                               ; preds = %44, %40
  %46 = phi i64 [ %43, %40 ], [ 0, %44 ]
  %47 = load ptr, ptr %7, align 8, !tbaa !21
  %48 = getelementptr inbounds nuw %"struct.absl::cord_internal::CordRep", ptr %47, i32 0, i32 0
  store i64 %46, ptr %48, align 8, !tbaa !23
  %49 = load ptr, ptr %7, align 8, !tbaa !21
  %50 = getelementptr inbounds nuw %"struct.absl::cord_internal::CordRep", ptr %49, i32 0, i32 2
  store i8 2, ptr %50, align 4, !tbaa !24
  %51 = load ptr, ptr %4, align 8, !tbaa !4
  %52 = load ptr, ptr %7, align 8, !tbaa !21
  %53 = getelementptr inbounds nuw %"struct.absl::cord_internal::CordRepCrc", ptr %52, i32 0, i32 1
  store ptr %51, ptr %53, align 8, !tbaa !11
  %54 = load ptr, ptr %7, align 8, !tbaa !21
  %55 = getelementptr inbounds nuw %"struct.absl::cord_internal::CordRepCrc", ptr %54, i32 0, i32 2
  %56 = call noundef nonnull align 8 dereferenceable(8) ptr @_ZN4absl12crc_internal12CrcCordStateaSEOS1_(ptr noundef nonnull align 8 dereferenceable(8) %55, ptr noundef nonnull align 8 dereferenceable(8) %1)
  %57 = load ptr, ptr %7, align 8, !tbaa !21
  store ptr %57, ptr %3, align 8
  call void @llvm.lifetime.end.p0(i64 8, ptr %7) #13
  br label %62

58:                                               ; preds = %35
  %59 = landingpad { ptr, i32 }
          cleanup
  %60 = extractvalue { ptr, i32 } %59, 0
  store ptr %60, ptr %8, align 8
  %61 = extractvalue { ptr, i32 } %59, 1
  store i32 %61, ptr %9, align 4
  call void @_ZdlPvm(ptr noundef %36, i64 noundef 32) #15
  call void @llvm.lifetime.end.p0(i64 8, ptr %7) #13
  br label %64

62:                                               ; preds = %45, %19
  %63 = load ptr, ptr %3, align 8
  ret ptr %63

64:                                               ; preds = %58
  %65 = load ptr, ptr %8, align 8
  %66 = load i32, ptr %9, align 4
  %67 = insertvalue { ptr, i32 } poison, ptr %65, 0
  %68 = insertvalue { ptr, i32 } %67, i32 %66, 1
  resume { ptr, i32 } %68
}