; Function Attrs: mustprogress uwtable
define dso_local noundef ptr @_ZN4absl13cord_internal10CordRepCrc3NewEPNS0_7CordRepENS_12crc_internal12CrcCordStateE(ptr noundef %0, ptr noundef %1) local_unnamed_addr #0 align 2 personality ptr @__gxx_personality_v0 {
  %.not = icmp eq ptr %0, null
  br i1 %.not, label %_ZN4absl13cord_internal7CordRep5UnrefEPS1_.exit, label %3

3:                                                ; preds = %2
  %4 = getelementptr inbounds nuw i8, ptr %0, i64 12
  %5 = load i8, ptr %4, align 4, !tbaa !4
  %6 = icmp eq i8 %5, 2
  br i1 %6, label %7, label %_ZN4absl13cord_internal7CordRep5UnrefEPS1_.exit

7:                                                ; preds = %3
  %8 = getelementptr inbounds nuw i8, ptr %0, i64 8
  %9 = load atomic i32, ptr %8 acquire, align 4
  %10 = icmp eq i32 %9, 2
  br i1 %10, label %11, label %13

11:                                               ; preds = %7
  %12 = getelementptr inbounds nuw i8, ptr %0, i64 24
  br label %31

13:                                               ; preds = %7
  %14 = getelementptr inbounds nuw i8, ptr %0, i64 16
  %15 = load ptr, ptr %14, align 8, !tbaa !13, !nonnull !19, !noundef !19
  %16 = getelementptr inbounds nuw i8, ptr %15, i64 8
  %17 = atomicrmw add ptr %16, i32 2 monotonic, align 4
  %18 = atomicrmw sub ptr %8, i32 2 acq_rel, align 4
  %.not.i = icmp eq i32 %18, 2
  br i1 %.not.i, label %19, label %_ZN4absl13cord_internal7CordRep5UnrefEPS1_.exit, !prof !20

19:                                               ; preds = %13
  tail call void @_ZN4absl13cord_internal7CordRep7DestroyEPS1_(ptr noundef nonnull %0)
  br label %_ZN4absl13cord_internal7CordRep5UnrefEPS1_.exit

_ZN4absl13cord_internal7CordRep5UnrefEPS1_.exit:  ; preds = %19, %13, %3, %2
  %.019 = phi ptr [ %0, %3 ], [ null, %2 ], [ %15, %13 ], [ %15, %19 ]
  %20 = tail call noalias noundef nonnull dereferenceable(32) ptr @_Znwm(i64 noundef 32) #5
  %21 = getelementptr inbounds nuw i8, ptr %20, i64 8
  store i32 2, ptr %21, align 4, !tbaa !21
  %22 = getelementptr inbounds nuw i8, ptr %20, i64 24
  invoke void @_ZN4absl12crc_internal12CrcCordStateC1Ev(ptr noundef nonnull align 8 dereferenceable(8) %22)
          to label %_ZN4absl13cord_internal10CordRepCrcC2Ev.exit unwind label %29

_ZN4absl13cord_internal10CordRepCrcC2Ev.exit:     ; preds = %_ZN4absl13cord_internal7CordRep5UnrefEPS1_.exit
  %.not21 = icmp eq ptr %.019, null
  br i1 %.not21, label %25, label %23

23:                                               ; preds = %_ZN4absl13cord_internal10CordRepCrcC2Ev.exit
  %24 = load i64, ptr %.019, align 8, !tbaa !22
  br label %25

25:                                               ; preds = %_ZN4absl13cord_internal10CordRepCrcC2Ev.exit, %23
  %26 = phi i64 [ %24, %23 ], [ 0, %_ZN4absl13cord_internal10CordRepCrcC2Ev.exit ]
  store i64 %26, ptr %20, align 8, !tbaa !22
  %27 = getelementptr inbounds nuw i8, ptr %20, i64 12
  store i8 2, ptr %27, align 4, !tbaa !4
  %28 = getelementptr inbounds nuw i8, ptr %20, i64 16
  store ptr %.019, ptr %28, align 8, !tbaa !13
  br label %31

29:                                               ; preds = %_ZN4absl13cord_internal7CordRep5UnrefEPS1_.exit
  %30 = landingpad { ptr, i32 }
          cleanup
  tail call void @_ZdlPvm(ptr noundef nonnull %20, i64 noundef 32) #6
  resume { ptr, i32 } %30

31:                                               ; preds = %25, %11
  %.sink = phi ptr [ %22, %25 ], [ %12, %11 ]
  %.0 = phi ptr [ %20, %25 ], [ %0, %11 ]
  %32 = tail call noundef nonnull align 8 dereferenceable(8) ptr @_ZN4absl12crc_internal12CrcCordStateaSEOS1_(ptr noundef nonnull align 8 dereferenceable(8) %.sink, ptr noundef nonnull align 8 dereferenceable(8) %1)
  ret ptr %.0
}